target datalayout = "e-m:e-p270:32:32-p271:32:32-p272:64:64-i64:64-i128:128-f80:128-n8:16:32:64-S128"
target triple = "x86_64-pc-linux-gnu"

%struct.static_metadata_t = type { i32, ptr, ptr, ptr }

; Function Attrs: nounwind sspstrong uwtable
define internal void @static_metadata_init(ptr noundef %0) #0 {
  %2 = alloca ptr, align 8
  store ptr %0, ptr %2, align 8, !tbaa !48
  %3 = load ptr, ptr %2, align 8, !tbaa !48
  %4 = getelementptr inbounds nuw %struct.static_metadata_t, ptr %3, i32 0, i32 0
  store i32 0, ptr %4, align 8, !tbaa !117
  %5 = load ptr, ptr %2, align 8, !tbaa !48
  %6 = getelementptr inbounds nuw %struct.static_metadata_t, ptr %5, i32 0, i32 1
  store ptr null, ptr %6, align 8, !tbaa !188
  %7 = load ptr, ptr %2, align 8, !tbaa !48
  %8 = getelementptr inbounds nuw %struct.static_metadata_t, ptr %7, i32 0, i32 2
  store ptr null, ptr %8, align 8, !tbaa !116
  %9 = load ptr, ptr %2, align 8, !tbaa !48
  %10 = getelementptr inbounds nuw %struct.static_metadata_t, ptr %9, i32 0, i32 3
  store ptr null, ptr %10, align 8, !tbaa !86
  ret void
}

; Function Attrs: nounwind sspstrong uwtable
define internal void @static_metadata_clear(ptr noundef %0) #0 {
  %2 = alloca ptr, align 8
  %3 = alloca i32, align 4
  store ptr %0, ptr %2, align 8, !tbaa !48
  call void @llvm.lifetime.start.p0(i64 4, ptr %3) #14
  store i32 0, ptr %3, align 4, !tbaa !13
  br label %4

4:                                                ; preds = %28, %1
  %5 = load i32, ptr %3, align 4, !tbaa !13
  %6 = load ptr, ptr %2, align 8, !tbaa !48
  %7 = getelementptr inbounds nuw %struct.static_metadata_t, ptr %6, i32 0, i32 0
  %8 = load i32, ptr %7, align 8, !tbaa !117
  %9 = icmp ult i32 %5, %8
  br i1 %9, label %10, label %31

10:                                               ; preds = %4
  %11 = load ptr, ptr %2, align 8, !tbaa !48
  %12 = getelementptr inbounds nuw %struct.static_metadata_t, ptr %11, i32 0, i32 1
  %13 = load ptr, ptr %12, align 8, !tbaa !188
  %14 = load i32, ptr %3, align 4, !tbaa !13
  %15 = zext i32 %14 to i64
  %16 = getelementptr inbounds nuw i32, ptr %13, i64 %15
  %17 = load i32, ptr %16, align 4, !tbaa !13
  %18 = icmp ne i32 %17, 0
  br i1 %18, label %19, label %27

19:                                               ; preds = %10
  %20 = load ptr, ptr %2, align 8, !tbaa !48
  %21 = getelementptr inbounds nuw %struct.static_metadata_t, ptr %20, i32 0, i32 2
  %22 = load ptr, ptr %21, align 8, !tbaa !116
  %23 = load i32, ptr %3, align 4, !tbaa !13
  %24 = zext i32 %23 to i64
  %25 = getelementptr inbounds nuw ptr, ptr %22, i64 %24
  %26 = load ptr, ptr %25, align 8, !tbaa !89
  call void @FLAC__metadata_object_delete(ptr noundef %26)
  br label %27

27:                                               ; preds = %19, %10
  br label %28

28:                                               ; preds = %27
  %29 = load i32, ptr %3, align 4, !tbaa !13
  %30 = add i32 %29, 1
  store i32 %30, ptr %3, align 4, !tbaa !13
  br label %4, !llvm.loop !195

31:                                               ; preds = %4
  %32 = load ptr, ptr %2, align 8, !tbaa !48
  %33 = getelementptr inbounds nuw %struct.static_metadata_t, ptr %32, i32 0, i32 2
  %34 = load ptr, ptr %33, align 8, !tbaa !116
  %35 = icmp ne ptr %34, null
  br i1 %35, label %36, label %40

36:                                               ; preds = %31
  %37 = load ptr, ptr %2, align 8, !tbaa !48
  %38 = getelementptr inbounds nuw %struct.static_metadata_t, ptr %37, i32 0, i32 2
  %39 = load ptr, ptr %38, align 8, !tbaa !116
  call void @free(ptr noundef %39) #14
  br label %40

40:                                               ; preds = %36, %31
  %41 = load ptr, ptr %2, align 8, !tbaa !48
  %42 = getelementptr inbounds nuw %struct.static_metadata_t, ptr %41, i32 0, i32 1
  %43 = load ptr, ptr %42, align 8, !tbaa !188
  %44 = icmp ne ptr %43, null
  br i1 %44, label %45, label %49

45:                                               ; preds = %40
  %46 = load ptr, ptr %2, align 8, !tbaa !48
  %47 = getelementptr inbounds nuw %struct.static_metadata_t, ptr %46, i32 0, i32 1
  %48 = load ptr, ptr %47, align 8, !tbaa !188
  call void @free(ptr noundef %48) #14
  br label %49

49:                                               ; preds = %45, %40
  %50 = load ptr, ptr %2, align 8, !tbaa !48
  %51 = getelementptr inbounds nuw %struct.static_metadata_t, ptr %50, i32 0, i32 3
  %52 = load ptr, ptr %51, align 8, !tbaa !86
  %53 = icmp ne ptr %52, null
  br i1 %53, label %54, label %58

54:                                               ; preds = %49
  %55 = load ptr, ptr %2, align 8, !tbaa !48
  %56 = getelementptr inbounds nuw %struct.static_metadata_t, ptr %55, i32 0, i32 3
  %57 = load ptr, ptr %56, align 8, !tbaa !86
  call void @FLAC__metadata_object_delete(ptr noundef %57)
  br label %58

58:                                               ; preds = %54, %49
  %59 = load ptr, ptr %2, align 8, !tbaa !48
  call void @static_metadata_init(ptr noundef %59)
  call void @llvm.lifetime.end.p0(i64 4, ptr %3) #14
  ret void
}