; Function Attrs: nounwind sspstrong uwtable
define internal fastcc void @static_metadata_clear(ptr noundef nonnull captures(none) %0) unnamed_addr #0 {
  %2 = load i32, ptr %0, align 8, !tbaa !84
  %.not20 = icmp eq i32 %2, 0
  br i1 %.not20, label %._crit_edge, label %.lr.ph

.lr.ph:                                           ; preds = %1
  %3 = getelementptr inbounds nuw i8, ptr %0, i64 8
  %4 = getelementptr inbounds nuw i8, ptr %0, i64 16
  br label %5

5:                                                ; preds = %.lr.ph, %14
  %6 = phi i32 [ %2, %.lr.ph ], [ %15, %14 ]
  %indvars.iv = phi i64 [ 0, %.lr.ph ], [ %indvars.iv.next, %14 ]
  %7 = load ptr, ptr %3, align 8, !tbaa !106
  %8 = getelementptr inbounds nuw i32, ptr %7, i64 %indvars.iv
  %9 = load i32, ptr %8, align 4, !tbaa !52
  %.not18 = icmp eq i32 %9, 0
  br i1 %.not18, label %14, label %10

10:                                               ; preds = %5
  %11 = load ptr, ptr %4, align 8, !tbaa !107
  %12 = getelementptr inbounds nuw ptr, ptr %11, i64 %indvars.iv
  %13 = load ptr, ptr %12, align 8, !tbaa !91
  tail call void @FLAC__metadata_object_delete(ptr noundef %13) #20
  %.pre = load i32, ptr %0, align 8, !tbaa !84
  br label %14

14:                                               ; preds = %5, %10
  %15 = phi i32 [ %6, %5 ], [ %.pre, %10 ]
  %indvars.iv.next = add nuw nsw i64 %indvars.iv, 1
  %16 = zext i32 %15 to i64
  %17 = icmp samesign ult i64 %indvars.iv.next, %16
  br i1 %17, label %5, label %._crit_edge, !llvm.loop !108

._crit_edge:                                      ; preds = %14, %1
  %18 = getelementptr inbounds nuw i8, ptr %0, i64 16
  %19 = load ptr, ptr %18, align 8, !tbaa !107
  %.not = icmp eq ptr %19, null
  br i1 %.not, label %21, label %20

20:                                               ; preds = %._crit_edge
  tail call void @free(ptr noundef nonnull %19) #20
  br label %21

21:                                               ; preds = %20, %._crit_edge
  %22 = getelementptr inbounds nuw i8, ptr %0, i64 8
  %23 = load ptr, ptr %22, align 8, !tbaa !106
  %.not16 = icmp eq ptr %23, null
  br i1 %.not16, label %25, label %24

24:                                               ; preds = %21
  tail call void @free(ptr noundef nonnull %23) #20
  br label %25

25:                                               ; preds = %24, %21
  %26 = getelementptr inbounds nuw i8, ptr %0, i64 24
  %27 = load ptr, ptr %26, align 8, !tbaa !109
  %.not17 = icmp eq ptr %27, null
  br i1 %.not17, label %29, label %28

28:                                               ; preds = %25
  tail call void @FLAC__metadata_object_delete(ptr noundef nonnull %27) #20
  br label %29

29:                                               ; preds = %28, %25
  store i32 0, ptr %0, align 8, !tbaa !84
  tail call void @llvm.memset.p0.i64(ptr noundef nonnull align 8 dereferenceable(24) %22, i8 0, i64 24, i1 false)
  ret void
}